; ModuleID = '19/2057.c'
source_filename = "19/2057.c"
target datalayout = "e-m:e-p270:32:32-p271:32:32-p272:64:64-i64:64-f80:128-n8:16:32:64-S128"
target triple = "x86_64-pc-linux-gnu"

@.str = private unnamed_addr constant [4 x i8] c"%s \00", align 1
@.str.1 = private unnamed_addr constant [3 x i8] c"%s\00", align 1

; Function Attrs: noinline nounwind uwtable
define dso_local i32 @main() #0 {
  %1 = alloca i32, align 4
  %2 = alloca [100 x [100 x i8]], align 16
  %3 = alloca [100 x i8], align 16
  %4 = alloca [100 x i8], align 16
  %5 = alloca [100 x i8], align 16
  %6 = alloca i32, align 4
  %7 = alloca i32, align 4
  %8 = alloca i32, align 4
  %9 = alloca i32, align 4
  %10 = alloca i32, align 4
  store i32 0, i32* %1, align 4
  store i32 0, i32* %8, align 4
  store i32 0, i32* %9, align 4
  %11 = getelementptr inbounds [100 x i8], [100 x i8]* %5, i64 0, i64 0
  %12 = call i32 (i8*, ...) bitcast (i32 (...)* @gets to i32 (i8*, ...)*)(i8* %11)
  %13 = getelementptr inbounds [100 x i8], [100 x i8]* %3, i64 0, i64 0
  %14 = call i32 (i8*, ...) bitcast (i32 (...)* @gets to i32 (i8*, ...)*)(i8* %13)
  %15 = getelementptr inbounds [100 x i8], [100 x i8]* %4, i64 0, i64 0
  %16 = call i32 (i8*, ...) bitcast (i32 (...)* @gets to i32 (i8*, ...)*)(i8* %15)
  %17 = getelementptr inbounds [100 x i8], [100 x i8]* %5, i64 0, i64 0
  %18 = call i64 @strlen(i8* %17) #3
  %19 = trunc i64 %18 to i32
  store i32 %19, i32* %7, align 4
  store i32 0, i32* %6, align 4
  br label %20

20:                                               ; preds = %38, %0
  %21 = load i32, i32* %6, align 4
  %22 = icmp slt i32 %21, 100
  br i1 %22, label %23, label %41

23:                                               ; preds = %20
  store i32 0, i32* %10, align 4
  br label %24

24:                                               ; preds = %34, %23
  %25 = load i32, i32* %10, align 4
  %26 = icmp slt i32 %25, 100
  br i1 %26, label %27, label %37

27:                                               ; preds = %24
  %28 = load i32, i32* %6, align 4
  %29 = sext i32 %28 to i64
  %30 = getelementptr inbounds [100 x [100 x i8]], [100 x [100 x i8]]* %2, i64 0, i64 %29
  %31 = load i32, i32* %10, align 4
  %32 = sext i32 %31 to i64
  %33 = getelementptr inbounds [100 x i8], [100 x i8]* %30, i64 0, i64 %32
  store i8 0, i8* %33, align 1
  br label %34

34:                                               ; preds = %27
  %35 = load i32, i32* %10, align 4
  %36 = add nsw i32 %35, 1
  store i32 %36, i32* %10, align 4
  br label %24

37:                                               ; preds = %24
  br label %38

38:                                               ; preds = %37
  %39 = load i32, i32* %6, align 4
  %40 = add nsw i32 %39, 1
  store i32 %40, i32* %6, align 4
  br label %20

41:                                               ; preds = %20
  store i32 0, i32* %6, align 4
  br label %42

42:                                               ; preds = %70, %41
  %43 = load i32, i32* %6, align 4
  %44 = load i32, i32* %7, align 4
  %45 = icmp slt i32 %43, %44
  br i1 %45, label %46, label %73

46:                                               ; preds = %42
  %47 = load i32, i32* %6, align 4
  %48 = sext i32 %47 to i64
  %49 = getelementptr inbounds [100 x i8], [100 x i8]* %5, i64 0, i64 %48
  %50 = load i8, i8* %49, align 1
  %51 = sext i8 %50 to i32
  %52 = icmp ne i32 %51, 32
  br i1 %52, label %53, label %66

53:                                               ; preds = %46
  %54 = load i32, i32* %6, align 4
  %55 = sext i32 %54 to i64
  %56 = getelementptr inbounds [100 x i8], [100 x i8]* %5, i64 0, i64 %55
  %57 = load i8, i8* %56, align 1
  %58 = load i32, i32* %8, align 4
  %59 = sext i32 %58 to i64
  %60 = getelementptr inbounds [100 x [100 x i8]], [100 x [100 x i8]]* %2, i64 0, i64 %59
  %61 = load i32, i32* %9, align 4
  %62 = sext i32 %61 to i64
  %63 = getelementptr inbounds [100 x i8], [100 x i8]* %60, i64 0, i64 %62
  store i8 %57, i8* %63, align 1
  %64 = load i32, i32* %9, align 4
  %65 = add nsw i32 %64, 1
  store i32 %65, i32* %9, align 4
  br label %69

66:                                               ; preds = %46
  %67 = load i32, i32* %8, align 4
  %68 = add nsw i32 %67, 1
  store i32 %68, i32* %8, align 4
  store i32 0, i32* %9, align 4
  br label %69

69:                                               ; preds = %66, %53
  br label %70

70:                                               ; preds = %69
  %71 = load i32, i32* %6, align 4
  %72 = add nsw i32 %71, 1
  store i32 %72, i32* %6, align 4
  br label %42

73:                                               ; preds = %42
  store i32 0, i32* %6, align 4
  br label %74

74:                                               ; preds = %96, %73
  %75 = load i32, i32* %6, align 4
  %76 = load i32, i32* %8, align 4
  %77 = icmp slt i32 %75, %76
  br i1 %77, label %78, label %99

78:                                               ; preds = %74
  %79 = load i32, i32* %6, align 4
  %80 = sext i32 %79 to i64
  %81 = getelementptr inbounds [100 x [100 x i8]], [100 x [100 x i8]]* %2, i64 0, i64 %80
  %82 = getelementptr inbounds [100 x i8], [100 x i8]* %81, i64 0, i64 0
  %83 = getelementptr inbounds [100 x i8], [100 x i8]* %3, i64 0, i64 0
  %84 = call i32 @strcmp(i8* %82, i8* %83) #3
  %85 = icmp eq i32 %84, 0
  br i1 %85, label %86, label %89

86:                                               ; preds = %78
  %87 = getelementptr inbounds [100 x i8], [100 x i8]* %4, i64 0, i64 0
  %88 = call i32 (i8*, ...) @printf(i8* getelementptr inbounds ([4 x i8], [4 x i8]* @.str, i64 0, i64 0), i8* %87)
  br label %95

89:                                               ; preds = %78
  %90 = load i32, i32* %6, align 4
  %91 = sext i32 %90 to i64
  %92 = getelementptr inbounds [100 x [100 x i8]], [100 x [100 x i8]]* %2, i64 0, i64 %91
  %93 = getelementptr inbounds [100 x i8], [100 x i8]* %92, i64 0, i64 0
  %94 = call i32 (i8*, ...) @printf(i8* getelementptr inbounds ([4 x i8], [4 x i8]* @.str, i64 0, i64 0), i8* %93)
  br label %95

95:                                               ; preds = %89, %86
  br label %96

96:                                               ; preds = %95
  %97 = load i32, i32* %6, align 4
  %98 = add nsw i32 %97, 1
  store i32 %98, i32* %6, align 4
  br label %74

99:                                               ; preds = %74
  %100 = load i32, i32* %8, align 4
  %101 = sext i32 %100 to i64
  %102 = getelementptr inbounds [100 x [100 x i8]], [100 x [100 x i8]]* %2, i64 0, i64 %101
  %103 = getelementptr inbounds [100 x i8], [100 x i8]* %102, i64 0, i64 0
  %104 = getelementptr inbounds [100 x i8], [100 x i8]* %3, i64 0, i64 0
  %105 = call i32 @strcmp(i8* %103, i8* %104) #3
  %106 = icmp eq i32 %105, 0
  br i1 %106, label %107, label %110

107:                                              ; preds = %99
  %108 = getelementptr inbounds [100 x i8], [100 x i8]* %4, i64 0, i64 0
  %109 = call i32 (i8*, ...) @printf(i8* getelementptr inbounds ([3 x i8], [3 x i8]* @.str.1, i64 0, i64 0), i8* %108)
  br label %116

110:                                              ; preds = %99
  %111 = load i32, i32* %8, align 4
  %112 = sext i32 %111 to i64
  %113 = getelementptr inbounds [100 x [100 x i8]], [100 x [100 x i8]]* %2, i64 0, i64 %112
  %114 = getelementptr inbounds [100 x i8], [100 x i8]* %113, i64 0, i64 0
  %115 = call i32 (i8*, ...) @printf(i8* getelementptr inbounds ([3 x i8], [3 x i8]* @.str.1, i64 0, i64 0), i8* %114)
  br label %116

116:                                              ; preds = %110, %107
  ret i32 0
}

declare dso_local i32 @gets(...) #1

; Function Attrs: nounwind readonly
declare dso_local i64 @strlen(i8*) #2

; Function Attrs: nounwind readonly
declare dso_local i32 @strcmp(i8*, i8*) #2

declare dso_local i32 @printf(i8*, ...) #1


!llvm.module.flags = !{!0}
!llvm.ident = !{!1}

!0 = !{i32 1, !"wchar_size", i32 4}
!1 = !{!"clang version 10.0.0-4ubuntu1 "}
